; Function Attrs: mustprogress uwtable
define void @_ZN8QuantLib24GridModelLocalVolSurface6updateEv(ptr noundef nonnull align 8 dereferenceable(248) %this) unnamed_addr #6 align 2 {
entry:
  tail call void @_ZN8QuantLib13TermStructure6updateEv(ptr noundef nonnull align 8 dereferenceable(64) %this)
  %add.ptr = getelementptr inbounds i8, ptr %this, i64 72
  %vtable.i = load ptr, ptr %add.ptr, align 8, !tbaa !49
  %vfn.i = getelementptr inbounds i8, ptr %vtable.i, i64 24
  %0 = load ptr, ptr %vfn.i, align 8
  tail call void %0(ptr noundef nonnull align 8 dereferenceable(76) %add.ptr)
  %vtable2.i = load ptr, ptr %add.ptr, align 8, !tbaa !49
  %vbase.offset.ptr.i = getelementptr i8, ptr %vtable2.i, i64 -32
  %vbase.offset.i = load i64, ptr %vbase.offset.ptr.i, align 8
  %add.ptr.i = getelementptr inbounds i8, ptr %add.ptr, i64 %vbase.offset.i
  tail call void @_ZN8QuantLib10Observable15notifyObserversEv(ptr noundef nonnull align 8 dereferenceable(56) %add.ptr.i)
  ret void
}